; Function Attrs: nounwind uwtable
define internal range(i32 0, 2) i32 @def_destroy(ptr noundef %0) #1 {
  %2 = icmp eq ptr %0, null
  br i1 %2, label %def_destroy_data.exit.thread, label %3

3:                                                ; preds = %1
  tail call void @_CONF_free_data(ptr noundef nonnull %0) #15
  tail call void @CRYPTO_free(ptr noundef nonnull %0, ptr noundef nonnull @.str.1, i32 noundef 153) #15
  br label %def_destroy_data.exit.thread

def_destroy_data.exit.thread:                     ; preds = %1, %3
  %.0 = phi i32 [ 1, %3 ], [ 0, %1 ]
  ret i32 %.0
}